target datalayout = "e-m:e-p270:32:32-p271:32:32-p272:64:64-i64:64-i128:128-f80:128-n8:16:32:64-S128"
target triple = "x86_64-pc-linux-gnu"

%struct.Abc_Cex_t_ = type { i32, i32, i32, i32, i32, [0 x i32] }

@.str.5 = private unnamed_addr constant [30 x i8] c"The counter example is NULL.\0A\00", align 1
@.str.6 = private unnamed_addr constant [75 x i8] c"The counter example is present but not available (pointer has value \221\22).\0A\00", align 1
@.str.8 = private unnamed_addr constant [69 x i8] c"CEX: Po =%4d  Fr =%4d  FF = %d  PI = %d  Bit =%7d  1 =%8d (%5.2f %%)\00", align 1
@.str.9 = private unnamed_addr constant [42 x i8] c" 1pi =%8d (%5.2f %%) 1ppi =%8d (%5.2f %%)\00", align 1
@.str.10 = private unnamed_addr constant [2 x i8] c"\0A\00", align 1

; Function Attrs: inlinehint nounwind uwtable
define internal i32 @Abc_InfoHasBit(ptr noundef %0, i32 noundef %1) #2 {
  %3 = alloca ptr, align 8
  %4 = alloca i32, align 4
  store ptr %0, ptr %3, align 8, !tbaa !16
  store i32 %1, ptr %4, align 4, !tbaa !3
  %5 = load ptr, ptr %3, align 8, !tbaa !16
  %6 = load i32, ptr %4, align 4, !tbaa !3
  %7 = ashr i32 %6, 5
  %8 = sext i32 %7 to i64
  %9 = getelementptr inbounds i32, ptr %5, i64 %8
  %10 = load i32, ptr %9, align 4, !tbaa !3
  %11 = load i32, ptr %4, align 4, !tbaa !3
  %12 = and i32 %11, 31
  %13 = shl i32 1, %12
  %14 = and i32 %10, %13
  %15 = icmp ugt i32 %14, 0
  %16 = zext i1 %15 to i32
  ret i32 %16
}

; Function Attrs: nounwind uwtable
define void @Abc_CexPrintStatsInputs(ptr noundef %0, i32 noundef %1) #0 {
  %3 = alloca ptr, align 8
  %4 = alloca i32, align 4
  %5 = alloca i32, align 4
  %6 = alloca i32, align 4
  %7 = alloca i32, align 4
  %8 = alloca i32, align 4
  %9 = alloca i32, align 4
  store ptr %0, ptr %3, align 8, !tbaa !7
  store i32 %1, ptr %4, align 4, !tbaa !3
  call void @llvm.lifetime.start.p0(i64 4, ptr %5) #8
  call void @llvm.lifetime.start.p0(i64 4, ptr %6) #8
  store i32 0, ptr %6, align 4, !tbaa !3
  call void @llvm.lifetime.start.p0(i64 4, ptr %7) #8
  store i32 0, ptr %7, align 4, !tbaa !3
  call void @llvm.lifetime.start.p0(i64 4, ptr %8) #8
  store i32 0, ptr %8, align 4, !tbaa !3
  %10 = load ptr, ptr %3, align 8, !tbaa !7
  %11 = icmp eq ptr %10, null
  br i1 %11, label %12, label %14

12:                                               ; preds = %2
  %13 = call i32 (ptr, ...) @printf(ptr noundef @.str.5)
  store i32 1, ptr %9, align 4
  br label %140

14:                                               ; preds = %2
  %15 = load ptr, ptr %3, align 8, !tbaa !7
  %16 = icmp eq ptr %15, inttoptr (i64 1 to ptr)
  br i1 %16, label %17, label %19

17:                                               ; preds = %14
  %18 = call i32 (ptr, ...) @printf(ptr noundef @.str.6)
  store i32 1, ptr %9, align 4
  br label %140

19:                                               ; preds = %14
  store i32 0, ptr %5, align 4, !tbaa !3
  br label %20

20:                                               ; preds = %69, %19
  %21 = load i32, ptr %5, align 4, !tbaa !3
  %22 = load ptr, ptr %3, align 8, !tbaa !7
  %23 = getelementptr inbounds nuw %struct.Abc_Cex_t_, ptr %22, i32 0, i32 4
  %24 = load i32, ptr %23, align 4, !tbaa !13
  %25 = icmp slt i32 %21, %24
  br i1 %25, label %26, label %72

26:                                               ; preds = %20
  %27 = load ptr, ptr %3, align 8, !tbaa !7
  %28 = getelementptr inbounds nuw %struct.Abc_Cex_t_, ptr %27, i32 0, i32 5
  %29 = getelementptr inbounds [0 x i32], ptr %28, i64 0, i64 0
  %30 = load i32, ptr %5, align 4, !tbaa !3
  %31 = call i32 @Abc_InfoHasBit(ptr noundef %29, i32 noundef %30)
  %32 = load i32, ptr %6, align 4, !tbaa !3
  %33 = add nsw i32 %32, %31
  store i32 %33, ptr %6, align 4, !tbaa !3
  %34 = load i32, ptr %4, align 4, !tbaa !3
  %35 = load ptr, ptr %3, align 8, !tbaa !7
  %36 = getelementptr inbounds nuw %struct.Abc_Cex_t_, ptr %35, i32 0, i32 3
  %37 = load i32, ptr %36, align 4, !tbaa !12
  %38 = icmp eq i32 %34, %37
  br i1 %38, label %39, label %40

39:                                               ; preds = %26
  br label %69

40:                                               ; preds = %26
  %41 = load i32, ptr %5, align 4, !tbaa !3
  %42 = load ptr, ptr %3, align 8, !tbaa !7
  %43 = getelementptr inbounds nuw %struct.Abc_Cex_t_, ptr %42, i32 0, i32 2
  %44 = load i32, ptr %43, align 4, !tbaa !10
  %45 = sub nsw i32 %41, %44
  %46 = load ptr, ptr %3, align 8, !tbaa !7
  %47 = getelementptr inbounds nuw %struct.Abc_Cex_t_, ptr %46, i32 0, i32 3
  %48 = load i32, ptr %47, align 4, !tbaa !12
  %49 = srem i32 %45, %48
  %50 = load i32, ptr %4, align 4, !tbaa !3
  %51 = icmp slt i32 %49, %50
  br i1 %51, label %52, label %60

52:                                               ; preds = %40
  %53 = load ptr, ptr %3, align 8, !tbaa !7
  %54 = getelementptr inbounds nuw %struct.Abc_Cex_t_, ptr %53, i32 0, i32 5
  %55 = getelementptr inbounds [0 x i32], ptr %54, i64 0, i64 0
  %56 = load i32, ptr %5, align 4, !tbaa !3
  %57 = call i32 @Abc_InfoHasBit(ptr noundef %55, i32 noundef %56)
  %58 = load i32, ptr %7, align 4, !tbaa !3
  %59 = add nsw i32 %58, %57
  store i32 %59, ptr %7, align 4, !tbaa !3
  br label %68

60:                                               ; preds = %40
  %61 = load ptr, ptr %3, align 8, !tbaa !7
  %62 = getelementptr inbounds nuw %struct.Abc_Cex_t_, ptr %61, i32 0, i32 5
  %63 = getelementptr inbounds [0 x i32], ptr %62, i64 0, i64 0
  %64 = load i32, ptr %5, align 4, !tbaa !3
  %65 = call i32 @Abc_InfoHasBit(ptr noundef %63, i32 noundef %64)
  %66 = load i32, ptr %8, align 4, !tbaa !3
  %67 = add nsw i32 %66, %65
  store i32 %67, ptr %8, align 4, !tbaa !3
  br label %68

68:                                               ; preds = %60, %52
  br label %69

69:                                               ; preds = %68, %39
  %70 = load i32, ptr %5, align 4, !tbaa !3
  %71 = add nsw i32 %70, 1
  store i32 %71, ptr %5, align 4, !tbaa !3
  br label %20, !llvm.loop !31

72:                                               ; preds = %20
  %73 = load ptr, ptr %3, align 8, !tbaa !7
  %74 = getelementptr inbounds nuw %struct.Abc_Cex_t_, ptr %73, i32 0, i32 0
  %75 = load i32, ptr %74, align 4, !tbaa !14
  %76 = load ptr, ptr %3, align 8, !tbaa !7
  %77 = getelementptr inbounds nuw %struct.Abc_Cex_t_, ptr %76, i32 0, i32 1
  %78 = load i32, ptr %77, align 4, !tbaa !15
  %79 = load ptr, ptr %3, align 8, !tbaa !7
  %80 = getelementptr inbounds nuw %struct.Abc_Cex_t_, ptr %79, i32 0, i32 2
  %81 = load i32, ptr %80, align 4, !tbaa !10
  %82 = load ptr, ptr %3, align 8, !tbaa !7
  %83 = getelementptr inbounds nuw %struct.Abc_Cex_t_, ptr %82, i32 0, i32 3
  %84 = load i32, ptr %83, align 4, !tbaa !12
  %85 = load ptr, ptr %3, align 8, !tbaa !7
  %86 = getelementptr inbounds nuw %struct.Abc_Cex_t_, ptr %85, i32 0, i32 4
  %87 = load i32, ptr %86, align 4, !tbaa !13
  %88 = load i32, ptr %6, align 4, !tbaa !3
  %89 = load i32, ptr %6, align 4, !tbaa !3
  %90 = sitofp i32 %89 to double
  %91 = fmul double 1.000000e+02, %90
  %92 = load ptr, ptr %3, align 8, !tbaa !7
  %93 = getelementptr inbounds nuw %struct.Abc_Cex_t_, ptr %92, i32 0, i32 1
  %94 = load i32, ptr %93, align 4, !tbaa !15
  %95 = add nsw i32 %94, 1
  %96 = load ptr, ptr %3, align 8, !tbaa !7
  %97 = getelementptr inbounds nuw %struct.Abc_Cex_t_, ptr %96, i32 0, i32 3
  %98 = load i32, ptr %97, align 4, !tbaa !12
  %99 = mul nsw i32 %95, %98
  %100 = sitofp i32 %99 to double
  %101 = fdiv double %91, %100
  %102 = call i32 (ptr, ...) @printf(ptr noundef @.str.8, i32 noundef %75, i32 noundef %78, i32 noundef %81, i32 noundef %84, i32 noundef %87, i32 noundef %88, double noundef %101)
  %103 = load i32, ptr %4, align 4, !tbaa !3
  %104 = load ptr, ptr %3, align 8, !tbaa !7
  %105 = getelementptr inbounds nuw %struct.Abc_Cex_t_, ptr %104, i32 0, i32 3
  %106 = load i32, ptr %105, align 4, !tbaa !12
  %107 = icmp slt i32 %103, %106
  br i1 %107, label %108, label %138

108:                                              ; preds = %72
  %109 = load i32, ptr %7, align 4, !tbaa !3
  %110 = load i32, ptr %7, align 4, !tbaa !3
  %111 = sitofp i32 %110 to double
  %112 = fmul double 1.000000e+02, %111
  %113 = load ptr, ptr %3, align 8, !tbaa !7
  %114 = getelementptr inbounds nuw %struct.Abc_Cex_t_, ptr %113, i32 0, i32 1
  %115 = load i32, ptr %114, align 4, !tbaa !15
  %116 = add nsw i32 %115, 1
  %117 = load i32, ptr %4, align 4, !tbaa !3
  %118 = mul nsw i32 %116, %117
  %119 = sitofp i32 %118 to double
  %120 = fdiv double %112, %119
  %121 = load i32, ptr %8, align 4, !tbaa !3
  %122 = load i32, ptr %8, align 4, !tbaa !3
  %123 = sitofp i32 %122 to double
  %124 = fmul double 1.000000e+02, %123
  %125 = load ptr, ptr %3, align 8, !tbaa !7
  %126 = getelementptr inbounds nuw %struct.Abc_Cex_t_, ptr %125, i32 0, i32 1
  %127 = load i32, ptr %126, align 4, !tbaa !15
  %128 = add nsw i32 %127, 1
  %129 = load ptr, ptr %3, align 8, !tbaa !7
  %130 = getelementptr inbounds nuw %struct.Abc_Cex_t_, ptr %129, i32 0, i32 3
  %131 = load i32, ptr %130, align 4, !tbaa !12
  %132 = load i32, ptr %4, align 4, !tbaa !3
  %133 = sub nsw i32 %131, %132
  %134 = mul nsw i32 %128, %133
  %135 = sitofp i32 %134 to double
  %136 = fdiv double %124, %135
  %137 = call i32 (ptr, ...) @printf(ptr noundef @.str.9, i32 noundef %109, double noundef %120, i32 noundef %121, double noundef %136)
  br label %138

138:                                              ; preds = %108, %72
  %139 = call i32 (ptr, ...) @printf(ptr noundef @.str.10)
  store i32 0, ptr %9, align 4
  br label %140

140:                                              ; preds = %138, %17, %12
  call void @llvm.lifetime.end.p0(i64 4, ptr %8) #8
  call void @llvm.lifetime.end.p0(i64 4, ptr %7) #8
  call void @llvm.lifetime.end.p0(i64 4, ptr %6) #8
  call void @llvm.lifetime.end.p0(i64 4, ptr %5) #8
  %141 = load i32, ptr %9, align 4
  switch i32 %141, label %143 [
    i32 0, label %142
    i32 1, label %142
  ]

142:                                              ; preds = %140, %140
  ret void

143:                                              ; preds = %140
  unreachable
}