; Function Attrs: nofree nounwind uwtable
define void @Abc_CexPrintStatsInputs(ptr noundef %0, i32 noundef %1) local_unnamed_addr #4 {
  %magicptr = ptrtoint ptr %0 to i64
  switch i64 %magicptr, label %.preheader [
    i64 0, label %21
    i64 1, label %22
  ]

.preheader:                                       ; preds = %2
  %3 = getelementptr inbounds nuw i8, ptr %0, i64 16
  %4 = load i32, ptr %3, align 4, !tbaa !9
  %5 = icmp sgt i32 %4, 0
  br i1 %5, label %.lr.ph, label %.preheader.._crit_edge_crit_edge

.preheader.._crit_edge_crit_edge:                 ; preds = %.preheader
  %.phi.trans.insert = getelementptr inbounds nuw i8, ptr %0, i64 12
  %.pre = load i32, ptr %.phi.trans.insert, align 4, !tbaa !8
  br label %._crit_edge

.lr.ph:                                           ; preds = %.preheader
  %6 = getelementptr inbounds nuw i8, ptr %0, i64 20
  %7 = getelementptr inbounds nuw i8, ptr %0, i64 12
  %8 = load i32, ptr %7, align 4, !tbaa !8
  %9 = icmp eq i32 %1, %8
  br i1 %9, label %.lr.ph.split.us, label %.lr.ph.split

.lr.ph.split.us:                                  ; preds = %.lr.ph, %.lr.ph.split.us
  %.04151.us = phi i32 [ %17, %.lr.ph.split.us ], [ 0, %.lr.ph ]
  %.04250.us = phi i32 [ %18, %.lr.ph.split.us ], [ 0, %.lr.ph ]
  %10 = lshr i32 %.04250.us, 5
  %11 = zext nneg i32 %10 to i64
  %12 = getelementptr inbounds nuw i32, ptr %6, i64 %11
  %13 = load i32, ptr %12, align 4, !tbaa !12
  %14 = and i32 %.04250.us, 31
  %15 = lshr i32 %13, %14
  %16 = and i32 %15, 1
  %17 = add nuw nsw i32 %16, %.04151.us
  %18 = add nuw nsw i32 %.04250.us, 1
  %exitcond62.not = icmp eq i32 %18, %4
  br i1 %exitcond62.not, label %._crit_edge, label %.lr.ph.split.us, !llvm.loop !26

.lr.ph.split:                                     ; preds = %.lr.ph
  %19 = getelementptr inbounds nuw i8, ptr %0, i64 8
  %20 = load i32, ptr %19, align 4, !tbaa !3
  br label %23

21:                                               ; preds = %2
  %puts49 = tail call i32 @puts(ptr nonnull dereferenceable(1) @str.7)
  br label %70

22:                                               ; preds = %2
  %puts = tail call i32 @puts(ptr nonnull dereferenceable(1) @str.6)
  br label %70

23:                                               ; preds = %.lr.ph.split, %23
  %.053 = phi i32 [ 0, %.lr.ph.split ], [ %.1, %23 ]
  %.03952 = phi i32 [ 0, %.lr.ph.split ], [ %.140, %23 ]
  %.04151 = phi i32 [ 0, %.lr.ph.split ], [ %31, %23 ]
  %.04250 = phi i32 [ 0, %.lr.ph.split ], [ %37, %23 ]
  %24 = lshr i32 %.04250, 5
  %25 = zext nneg i32 %24 to i64
  %26 = getelementptr inbounds nuw i32, ptr %6, i64 %25
  %27 = load i32, ptr %26, align 4, !tbaa !12
  %28 = and i32 %.04250, 31
  %29 = lshr i32 %27, %28
  %30 = and i32 %29, 1
  %31 = add nuw nsw i32 %30, %.04151
  %32 = sub nsw i32 %.04250, %20
  %33 = srem i32 %32, %8
  %34 = icmp slt i32 %33, %1
  %35 = select i1 %34, i32 %30, i32 0
  %.140 = add nuw nsw i32 %.03952, %35
  %36 = select i1 %34, i32 0, i32 %30
  %.1 = add nuw nsw i32 %.053, %36
  %37 = add nuw nsw i32 %.04250, 1
  %exitcond.not = icmp eq i32 %37, %4
  br i1 %exitcond.not, label %._crit_edge, label %23, !llvm.loop !26

._crit_edge:                                      ; preds = %23, %.lr.ph.split.us, %.preheader.._crit_edge_crit_edge
  %38 = phi i32 [ %.pre, %.preheader.._crit_edge_crit_edge ], [ %1, %.lr.ph.split.us ], [ %8, %23 ]
  %.041.lcssa = phi i32 [ 0, %.preheader.._crit_edge_crit_edge ], [ %17, %.lr.ph.split.us ], [ %31, %23 ]
  %.039.lcssa = phi i32 [ 0, %.preheader.._crit_edge_crit_edge ], [ 0, %.lr.ph.split.us ], [ %.140, %23 ]
  %.0.lcssa = phi i32 [ 0, %.preheader.._crit_edge_crit_edge ], [ 0, %.lr.ph.split.us ], [ %.1, %23 ]
  %39 = load i32, ptr %0, align 4, !tbaa !10
  %40 = getelementptr inbounds nuw i8, ptr %0, i64 4
  %41 = load i32, ptr %40, align 4, !tbaa !11
  %42 = getelementptr inbounds nuw i8, ptr %0, i64 8
  %43 = load i32, ptr %42, align 4, !tbaa !3
  %44 = getelementptr inbounds nuw i8, ptr %0, i64 12
  %45 = uitofp nneg i32 %.041.lcssa to double
  %46 = fmul double %45, 1.000000e+02
  %47 = add nsw i32 %41, 1
  %48 = mul nsw i32 %38, %47
  %49 = sitofp i32 %48 to double
  %50 = fdiv double %46, %49
  %51 = tail call i32 (ptr, ...) @printf(ptr noundef nonnull dereferenceable(1) @.str.8, i32 noundef %39, i32 noundef %41, i32 noundef %43, i32 noundef %38, i32 noundef %4, i32 noundef %.041.lcssa, double noundef %50)
  %52 = load i32, ptr %44, align 4, !tbaa !8
  %53 = icmp slt i32 %1, %52
  br i1 %53, label %54, label %69

54:                                               ; preds = %._crit_edge
  %55 = sitofp i32 %.039.lcssa to double
  %56 = fmul double %55, 1.000000e+02
  %57 = load i32, ptr %40, align 4, !tbaa !11
  %58 = add nsw i32 %57, 1
  %59 = mul nsw i32 %58, %1
  %60 = sitofp i32 %59 to double
  %61 = fdiv double %56, %60
  %62 = sitofp i32 %.0.lcssa to double
  %63 = fmul double %62, 1.000000e+02
  %64 = sub nsw i32 %52, %1
  %65 = mul nsw i32 %58, %64
  %66 = sitofp i32 %65 to double
  %67 = fdiv double %63, %66
  %68 = tail call i32 (ptr, ...) @printf(ptr noundef nonnull dereferenceable(1) @.str.9, i32 noundef %.039.lcssa, double noundef %61, i32 noundef %.0.lcssa, double noundef %67)
  br label %69

69:                                               ; preds = %54, %._crit_edge
  %putchar = tail call i32 @putchar(i32 10)
  br label %70

70:                                               ; preds = %69, %22, %21
  ret void
}